target datalayout = "e-m:e-p270:32:32-p271:32:32-p272:64:64-i64:64-i128:128-f80:128-n8:16:32:64-S128"
target triple = "x86_64-pc-linux-gnu"

@.str.18 = private unnamed_addr constant [30 x i8] c"../openssl/test/threadstest.c\00", align 1
@atomiclock = internal global ptr null, align 8
@writer1_done = internal global i32 0, align 4
@writer2_done = internal global i32 0, align 4
@rcu_torture_result = internal global i32 1, align 4
@rcu_lock = internal global ptr null, align 8
@writer_ptr = internal global ptr null, align 8
@.str.94 = private unnamed_addr constant [46 x i8] c"rcu torture value went backwards! %llu : %llu\00", align 1

; Function Attrs: nounwind uwtable
define internal void @reader_fn(ptr noundef %0) #0 {
  %2 = alloca ptr, align 8
  %3 = alloca i32, align 4
  %4 = alloca ptr, align 8
  %5 = alloca i64, align 8
  %6 = alloca i64, align 8
  %7 = alloca i32, align 4
  %8 = alloca i32, align 4
  %9 = alloca i32, align 4
  store ptr %0, ptr %2, align 8, !tbaa !47
  call void @llvm.lifetime.start.p0(i64 4, ptr %3) #10
  store i32 0, ptr %3, align 4, !tbaa !4
  call void @llvm.lifetime.start.p0(i64 8, ptr %4) #10
  call void @llvm.lifetime.start.p0(i64 8, ptr %5) #10
  call void @llvm.lifetime.start.p0(i64 8, ptr %6) #10
  store i64 0, ptr %6, align 8, !tbaa !14
  call void @llvm.lifetime.start.p0(i64 4, ptr %7) #10
  store i32 0, ptr %7, align 4, !tbaa !4
  call void @llvm.lifetime.start.p0(i64 4, ptr %8) #10
  store i32 0, ptr %8, align 4, !tbaa !4
  br label %10

10:                                               ; preds = %49, %1
  %11 = load i32, ptr %7, align 4, !tbaa !4
  %12 = icmp ne i32 %11, 1
  br i1 %12, label %16, label %13

13:                                               ; preds = %10
  %14 = load i32, ptr %8, align 4, !tbaa !4
  %15 = icmp ne i32 %14, 1
  br label %16

16:                                               ; preds = %13, %10
  %17 = phi i1 [ true, %10 ], [ %15, %13 ]
  br i1 %17, label %18, label %50

18:                                               ; preds = %16
  %19 = load ptr, ptr @atomiclock, align 8, !tbaa !13
  %20 = call i32 @CRYPTO_atomic_add(ptr noundef @writer1_done, i32 noundef 0, ptr noundef %7, ptr noundef %19)
  %21 = load ptr, ptr @atomiclock, align 8, !tbaa !13
  %22 = call i32 @CRYPTO_atomic_add(ptr noundef @writer2_done, i32 noundef 0, ptr noundef %8, ptr noundef %21)
  %23 = load i32, ptr %3, align 4, !tbaa !4
  %24 = add i32 %23, 1
  store i32 %24, ptr %3, align 4, !tbaa !4
  %25 = load ptr, ptr @rcu_lock, align 8, !tbaa !50
  call void @ossl_rcu_read_lock(ptr noundef %25)
  %26 = call ptr @ossl_rcu_uptr_deref(ptr noundef @writer_ptr)
  store ptr %26, ptr %4, align 8, !tbaa !36
  %27 = load ptr, ptr %4, align 8, !tbaa !36
  %28 = icmp eq ptr %27, null
  br i1 %28, label %29, label %30

29:                                               ; preds = %18
  br label %33

30:                                               ; preds = %18
  %31 = load ptr, ptr %4, align 8, !tbaa !36
  %32 = load i64, ptr %31, align 8, !tbaa !14
  br label %33

33:                                               ; preds = %30, %29
  %34 = phi i64 [ 0, %29 ], [ %32, %30 ]
  store i64 %34, ptr %5, align 8, !tbaa !14
  %35 = load i64, ptr %6, align 8, !tbaa !14
  %36 = load i64, ptr %5, align 8, !tbaa !14
  %37 = icmp ugt i64 %35, %36
  br i1 %37, label %38, label %41

38:                                               ; preds = %33
  %39 = load i64, ptr %6, align 8, !tbaa !14
  %40 = load i64, ptr %5, align 8, !tbaa !14
  call void (ptr, i32, ptr, ...) @test_info(ptr noundef @.str.18, i32 noundef 383, ptr noundef @.str.94, i64 noundef %39, i64 noundef %40)
  store i32 0, ptr @rcu_torture_result, align 4, !tbaa !4
  br label %41

41:                                               ; preds = %38, %33
  %42 = load i64, ptr %5, align 8, !tbaa !14
  store i64 %42, ptr %6, align 8, !tbaa !14
  %43 = load ptr, ptr @rcu_lock, align 8, !tbaa !50
  call void @ossl_rcu_read_unlock(ptr noundef %43)
  %44 = load i32, ptr @rcu_torture_result, align 4, !tbaa !4
  %45 = icmp eq i32 %44, 0
  br i1 %45, label %46, label %49

46:                                               ; preds = %41
  %47 = load i32, ptr %3, align 4, !tbaa !4
  %48 = load ptr, ptr %2, align 8, !tbaa !47
  store i32 %47, ptr %48, align 4, !tbaa !4
  store i32 1, ptr %9, align 4
  br label %53

49:                                               ; preds = %41
  br label %10, !llvm.loop !52

50:                                               ; preds = %16
  %51 = load i32, ptr %3, align 4, !tbaa !4
  %52 = load ptr, ptr %2, align 8, !tbaa !47
  store i32 %51, ptr %52, align 4, !tbaa !4
  store i32 0, ptr %9, align 4
  br label %53

53:                                               ; preds = %50, %46
  call void @llvm.lifetime.end.p0(i64 4, ptr %8) #10
  call void @llvm.lifetime.end.p0(i64 4, ptr %7) #10
  call void @llvm.lifetime.end.p0(i64 8, ptr %6) #10
  call void @llvm.lifetime.end.p0(i64 8, ptr %5) #10
  call void @llvm.lifetime.end.p0(i64 8, ptr %4) #10
  call void @llvm.lifetime.end.p0(i64 4, ptr %3) #10
  %54 = load i32, ptr %9, align 4
  switch i32 %54, label %56 [
    i32 0, label %55
    i32 1, label %55
  ]

55:                                               ; preds = %53, %53
  ret void

56:                                               ; preds = %53
  unreachable
}