; Function Attrs: nounwind uwtable
define internal fastcc void @reader_fn(ptr noundef writeonly captures(none) %0) unnamed_addr #1 {
  %2 = alloca i32, align 4
  %3 = alloca i32, align 4
  call void @llvm.lifetime.start.p0(i64 4, ptr nonnull %2) #11
  store i32 0, ptr %2, align 4, !tbaa !14
  call void @llvm.lifetime.start.p0(i64 4, ptr nonnull %3) #11
  store i32 0, ptr %3, align 4, !tbaa !14
  br label %4

4:                                                ; preds = %25, %1
  %.011 = phi i32 [ 0, %1 ], [ %15, %25 ]
  %.0 = phi i64 [ 0, %1 ], [ %22, %25 ]
  %5 = load i32, ptr %2, align 4, !tbaa !14
  %6 = icmp ne i32 %5, 1
  %7 = load i32, ptr %3, align 4
  %8 = icmp ne i32 %7, 1
  %9 = select i1 %6, i1 true, i1 %8
  br i1 %9, label %10, label %27

10:                                               ; preds = %4
  %11 = load ptr, ptr @atomiclock, align 8, !tbaa !11
  %12 = call i32 @CRYPTO_atomic_add(ptr noundef nonnull @writer1_done, i32 noundef 0, ptr noundef nonnull %2, ptr noundef %11) #11
  %13 = load ptr, ptr @atomiclock, align 8, !tbaa !11
  %14 = call i32 @CRYPTO_atomic_add(ptr noundef nonnull @writer2_done, i32 noundef 0, ptr noundef nonnull %3, ptr noundef %13) #11
  %15 = add i32 %.011, 1
  %16 = load ptr, ptr @rcu_lock, align 8, !tbaa !33
  call void @ossl_rcu_read_lock(ptr noundef %16) #11
  %17 = call ptr @ossl_rcu_uptr_deref(ptr noundef nonnull @writer_ptr) #11
  %18 = icmp eq ptr %17, null
  br i1 %18, label %21, label %19

19:                                               ; preds = %10
  %20 = load i64, ptr %17, align 8, !tbaa !12
  br label %21

21:                                               ; preds = %10, %19
  %22 = phi i64 [ %20, %19 ], [ 0, %10 ]
  %23 = icmp ugt i64 %.0, %22
  br i1 %23, label %24, label %25

24:                                               ; preds = %21
  call void (ptr, i32, ptr, ...) @test_info(ptr noundef nonnull @.str.18, i32 noundef 383, ptr noundef nonnull @.str.94, i64 noundef %.0, i64 noundef %22) #11
  store i1 true, ptr @rcu_torture_result, align 4
  br label %25

25:                                               ; preds = %24, %21
  %26 = load ptr, ptr @rcu_lock, align 8, !tbaa !33
  call void @ossl_rcu_read_unlock(ptr noundef %26) #11
  %.b = load i1, ptr @rcu_torture_result, align 4
  br i1 %.b, label %27, label %4, !llvm.loop !35

27:                                               ; preds = %4, %25
  %storemerge = phi i32 [ %15, %25 ], [ %.011, %4 ]
  store i32 %storemerge, ptr %0, align 4, !tbaa !14
  call void @llvm.lifetime.end.p0(i64 4, ptr nonnull %3) #11
  call void @llvm.lifetime.end.p0(i64 4, ptr nonnull %2) #11
  ret void
}